target datalayout = "e-m:e-p270:32:32-p271:32:32-p272:64:64-i64:64-i128:128-f80:128-n8:16:32:64-S128"
target triple = "x86_64-pc-linux-gnu"

%struct.wc_Sha256 = type { [8 x i32], [16 x i32], i32, i32, i32, ptr, [8 x i8] }

; Function Attrs: nounwind uwtable
define internal i32 @InitSha256(ptr noundef %0) #0 {
  %2 = alloca ptr, align 8
  store ptr %0, ptr %2, align 8, !tbaa !3
  %3 = load ptr, ptr %2, align 8, !tbaa !3
  %4 = getelementptr inbounds nuw %struct.wc_Sha256, ptr %3, i32 0, i32 0
  %5 = getelementptr inbounds [8 x i32], ptr %4, i64 0, i64 0
  call void @llvm.memset.p0.i64(ptr align 16 %5, i8 0, i64 32, i1 false)
  %6 = load ptr, ptr %2, align 8, !tbaa !3
  %7 = getelementptr inbounds nuw %struct.wc_Sha256, ptr %6, i32 0, i32 0
  %8 = getelementptr inbounds [8 x i32], ptr %7, i64 0, i64 0
  store i32 1779033703, ptr %8, align 16, !tbaa !9
  %9 = load ptr, ptr %2, align 8, !tbaa !3
  %10 = getelementptr inbounds nuw %struct.wc_Sha256, ptr %9, i32 0, i32 0
  %11 = getelementptr inbounds [8 x i32], ptr %10, i64 0, i64 1
  store i32 -1150833019, ptr %11, align 4, !tbaa !9
  %12 = load ptr, ptr %2, align 8, !tbaa !3
  %13 = getelementptr inbounds nuw %struct.wc_Sha256, ptr %12, i32 0, i32 0
  %14 = getelementptr inbounds [8 x i32], ptr %13, i64 0, i64 2
  store i32 1013904242, ptr %14, align 8, !tbaa !9
  %15 = load ptr, ptr %2, align 8, !tbaa !3
  %16 = getelementptr inbounds nuw %struct.wc_Sha256, ptr %15, i32 0, i32 0
  %17 = getelementptr inbounds [8 x i32], ptr %16, i64 0, i64 3
  store i32 -1521486534, ptr %17, align 4, !tbaa !9
  %18 = load ptr, ptr %2, align 8, !tbaa !3
  %19 = getelementptr inbounds nuw %struct.wc_Sha256, ptr %18, i32 0, i32 0
  %20 = getelementptr inbounds [8 x i32], ptr %19, i64 0, i64 4
  store i32 1359893119, ptr %20, align 16, !tbaa !9
  %21 = load ptr, ptr %2, align 8, !tbaa !3
  %22 = getelementptr inbounds nuw %struct.wc_Sha256, ptr %21, i32 0, i32 0
  %23 = getelementptr inbounds [8 x i32], ptr %22, i64 0, i64 5
  store i32 -1694144372, ptr %23, align 4, !tbaa !9
  %24 = load ptr, ptr %2, align 8, !tbaa !3
  %25 = getelementptr inbounds nuw %struct.wc_Sha256, ptr %24, i32 0, i32 0
  %26 = getelementptr inbounds [8 x i32], ptr %25, i64 0, i64 6
  store i32 528734635, ptr %26, align 8, !tbaa !9
  %27 = load ptr, ptr %2, align 8, !tbaa !3
  %28 = getelementptr inbounds nuw %struct.wc_Sha256, ptr %27, i32 0, i32 0
  %29 = getelementptr inbounds [8 x i32], ptr %28, i64 0, i64 7
  store i32 1541459225, ptr %29, align 4, !tbaa !9
  %30 = load ptr, ptr %2, align 8, !tbaa !3
  %31 = getelementptr inbounds nuw %struct.wc_Sha256, ptr %30, i32 0, i32 2
  store i32 0, ptr %31, align 16, !tbaa !13
  %32 = load ptr, ptr %2, align 8, !tbaa !3
  %33 = getelementptr inbounds nuw %struct.wc_Sha256, ptr %32, i32 0, i32 3
  store i32 0, ptr %33, align 4, !tbaa !14
  %34 = load ptr, ptr %2, align 8, !tbaa !3
  %35 = getelementptr inbounds nuw %struct.wc_Sha256, ptr %34, i32 0, i32 4
  store i32 0, ptr %35, align 8, !tbaa !15
  ret i32 0
}

; Function Attrs: nounwind uwtable
define i32 @wc_InitSha256_ex(ptr noundef %0, ptr noundef %1, i32 noundef %2) #0 {
  %4 = alloca i32, align 4
  %5 = alloca ptr, align 8
  %6 = alloca ptr, align 8
  %7 = alloca i32, align 4
  %8 = alloca i32, align 4
  %9 = alloca i32, align 4
  store ptr %0, ptr %5, align 8, !tbaa !3
  store ptr %1, ptr %6, align 8, !tbaa !8
  store i32 %2, ptr %7, align 4, !tbaa !9
  call void @llvm.lifetime.start.p0(i64 4, ptr %8) #5
  store i32 0, ptr %8, align 4, !tbaa !9
  %10 = load ptr, ptr %5, align 8, !tbaa !3
  %11 = icmp eq ptr %10, null
  br i1 %11, label %12, label %13

12:                                               ; preds = %3
  store i32 -173, ptr %4, align 4
  store i32 1, ptr %9, align 4
  br label %25

13:                                               ; preds = %3
  %14 = load ptr, ptr %5, align 8, !tbaa !3
  %15 = call i32 @InitSha256(ptr noundef %14)
  store i32 %15, ptr %8, align 4, !tbaa !9
  %16 = load i32, ptr %8, align 4, !tbaa !9
  %17 = icmp ne i32 %16, 0
  br i1 %17, label %18, label %20

18:                                               ; preds = %13
  %19 = load i32, ptr %8, align 4, !tbaa !9
  store i32 %19, ptr %4, align 4
  store i32 1, ptr %9, align 4
  br label %25

20:                                               ; preds = %13
  %21 = load ptr, ptr %6, align 8, !tbaa !8
  %22 = load ptr, ptr %5, align 8, !tbaa !3
  %23 = getelementptr inbounds nuw %struct.wc_Sha256, ptr %22, i32 0, i32 5
  store ptr %21, ptr %23, align 16, !tbaa !11
  %24 = load i32, ptr %8, align 4, !tbaa !9
  store i32 %24, ptr %4, align 4
  store i32 1, ptr %9, align 4
  br label %25

25:                                               ; preds = %20, %18, %12
  call void @llvm.lifetime.end.p0(i64 4, ptr %8) #5
  %26 = load i32, ptr %4, align 4
  ret i32 %26
}